Archive member included to satisfy reference by file (symbol)

../ps1sdk/libps1sdk.a(syscalls.o)
                              src/main.o (symbol from plugin) (open)

Discarded input sections

 .text          0x0000000000000000       0x20 ../common/hardware/cop0.o
 .data          0x0000000000000000        0x0 ../common/hardware/cop0.o
 .bss           0x0000000000000000        0x0 ../common/hardware/cop0.o
 .reginfo       0x0000000000000000       0x18 ../common/hardware/cop0.o
 .MIPS.abiflags
                0x0000000000000000       0x18 ../common/hardware/cop0.o
 .pdr           0x0000000000000000        0x0 ../common/hardware/cop0.o
 .debug_line    0x0000000000000000       0x50 ../common/hardware/cop0.o
 .debug_info    0x0000000000000000       0x26 ../common/hardware/cop0.o
 .debug_abbrev  0x0000000000000000       0x14 ../common/hardware/cop0.o
 .debug_aranges
                0x0000000000000000       0x20 ../common/hardware/cop0.o
 .debug_str     0x0000000000000000       0x44 ../common/hardware/cop0.o
 .gnu.attributes
                0x0000000000000000       0x10 ../common/hardware/cop0.o
 .text          0x0000000000000000        0x0 crt0/crt0.o
 .data          0x0000000000000000        0x0 crt0/crt0.o
 .bss           0x0000000000000000        0x0 crt0/crt0.o
 .reginfo       0x0000000000000000       0x18 crt0/crt0.o
 .MIPS.abiflags
                0x0000000000000000       0x18 crt0/crt0.o
 .debug_line    0x0000000000000000       0x48 crt0/crt0.o
 .debug_info    0x0000000000000000       0x26 crt0/crt0.o
 .debug_abbrev  0x0000000000000000       0x14 crt0/crt0.o
 .debug_aranges
                0x0000000000000000       0x20 crt0/crt0.o
 .debug_str     0x0000000000000000       0x36 crt0/crt0.o
 .data          0x0000000000000000        0x0 /tmp/ccZkEXwY.ltrans0.ltrans.o
 .bss           0x0000000000000000        0x0 /tmp/ccZkEXwY.ltrans0.ltrans.o
 .reginfo       0x0000000000000000       0x18 /tmp/ccZkEXwY.ltrans0.ltrans.o
 .MIPS.abiflags
                0x0000000000000000       0x18 /tmp/ccZkEXwY.ltrans0.ltrans.o
 .pdr           0x0000000000000000       0x40 /tmp/ccZkEXwY.ltrans0.ltrans.o
 .mdebug.abi32  0x0000000000000000        0x0 /tmp/ccZkEXwY.ltrans0.ltrans.o
 .debug_info    0x0000000000000000      0x737 /tmp/ccZkEXwY.ltrans0.ltrans.o
 .debug_abbrev  0x0000000000000000      0x26d /tmp/ccZkEXwY.ltrans0.ltrans.o
 .debug_loc     0x0000000000000000      0x2b8 /tmp/ccZkEXwY.ltrans0.ltrans.o
 .debug_aranges
                0x0000000000000000       0x28 /tmp/ccZkEXwY.ltrans0.ltrans.o
 .debug_ranges  0x0000000000000000      0x128 /tmp/ccZkEXwY.ltrans0.ltrans.o
 .debug_line    0x0000000000000000      0x15a /tmp/ccZkEXwY.ltrans0.ltrans.o
 .debug_str     0x0000000000000000      0x30c /tmp/ccZkEXwY.ltrans0.ltrans.o
 .debug_frame   0x0000000000000000       0x4c /tmp/ccZkEXwY.ltrans0.ltrans.o
 .data          0x0000000000000000        0x0 ../ps1sdk/libps1sdk.a(syscalls.o)
 .bss           0x0000000000000000        0x0 ../ps1sdk/libps1sdk.a(syscalls.o)
 .reginfo       0x0000000000000000       0x18 ../ps1sdk/libps1sdk.a(syscalls.o)
 .MIPS.abiflags
                0x0000000000000000       0x18 ../ps1sdk/libps1sdk.a(syscalls.o)
 .pdr           0x0000000000000000     0x1de0 ../ps1sdk/libps1sdk.a(syscalls.o)
 .debug_line    0x0000000000000000      0x141 ../ps1sdk/libps1sdk.a(syscalls.o)
 .debug_info    0x0000000000000000       0x26 ../ps1sdk/libps1sdk.a(syscalls.o)
 .debug_abbrev  0x0000000000000000       0x14 ../ps1sdk/libps1sdk.a(syscalls.o)
 .debug_aranges
                0x0000000000000000       0x20 ../ps1sdk/libps1sdk.a(syscalls.o)
 .debug_str     0x0000000000000000       0x34 ../ps1sdk/libps1sdk.a(syscalls.o)

Memory Configuration

Name             Origin             Length             Attributes
loader           0x000000008000f800 0x0000000000000800
ram              0x0000000080010000 0x00000000001f0000 xrw
dcache           0x000000001f800000 0x0000000000000400
*default*        0x0000000000000000 0xffffffffffffffff

Linker script and memory map

LOAD ../ps1sdk/libps1sdk.a
                0x0000000080010000                TLOAD_ADDR = 0x80010000
LOAD ../common/hardware/cop0.o
LOAD crt0/crt0.o
LOAD /tmp/ccZkEXwY.ltrans0.ltrans.o
LOAD ../ps1sdk/libps1sdk.a
                0x0000000080010000                TLOAD_ADDR = DEFINED (_TLOAD_ADDR)?TLOAD_ADDR:0x80010000
                0x0000000080200000                __ram_top = (ORIGIN (ram) + LENGTH (ram))
                0x00000000801fff00                __sp = (__ram_top - 0x100)
                0x000000001f800000                __dcache = ORIGIN (dcache)
                0x000000001f800400                __dcache_top = (ORIGIN (dcache) + LENGTH (dcache))
                0x0000000000000000                __bss_len = (__bss_end - __bss_start)
                0x0000000000000e40                __ftext_len = (__ftext_end - __ftext_start)
                0x000000000000000c                __fdata_len = (__fdata_end - __fdata_start)

.PSX_EXE_Header
                0x000000008000f800      0x800
                0x000000008000f800        0x1 BYTE 0x50
                0x000000008000f801        0x1 BYTE 0x53
                0x000000008000f802        0x1 BYTE 0x2d
                0x000000008000f803        0x1 BYTE 0x58
                0x000000008000f804        0x1 BYTE 0x20
                0x000000008000f805        0x1 BYTE 0x45
                0x000000008000f806        0x1 BYTE 0x58
                0x000000008000f807        0x1 BYTE 0x45
                0x000000008000f808        0x4 LONG 0x0
                0x000000008000f80c        0x4 LONG 0x0
                0x000000008000f810        0x4 LONG 0x80010000 ABSOLUTE (_start)
                0x000000008000f814        0x4 LONG 0x0
                0x000000008000f818        0x4 LONG 0x80010000 TLOAD_ADDR
                0x000000008000f81c        0x4 LONG 0xe4c (__ftext_len + __fdata_len)
                0x000000008000f820        0x4 LONG 0x0
                0x000000008000f824        0x4 LONG 0x0
                0x000000008000f828        0x4 LONG 0x0
                0x000000008000f82c        0x4 LONG 0x0
                0x000000008000f830        0x4 LONG 0x801fff00 DEFINED (_sp)?ABSOLUTE (_sp):0x801fff00
                0x000000008000f834        0x4 LONG 0x0
                0x0000000080010000                . = (. + 0x7c8)
 *fill*         0x000000008000f838      0x7c8 
                0x0000000080010000                __ftext_start = ABSOLUTE (.)

.text           0x0000000080010000      0xe40
 *(.start)
 .start         0x0000000080010000       0x40 crt0/crt0.o
                0x0000000080010000                _start
 *(.init)
 *(SORT_NONE(.fini))
 *(.text.unlikely .text.*_unlikely .text.unlikely.*)
 *(.text.exit .text.exit.*)
 *(.text.startup .text.startup.*)
 .text.startup  0x0000000080010040       0x60 /tmp/ccZkEXwY.ltrans0.ltrans.o
                0x0000000080010040                main
 *(.text.hot .text.hot.*)
 *(.text .stub .text.* .gnu.linkonce.t.*)
 .text          0x00000000800100a0      0x240 /tmp/ccZkEXwY.ltrans0.ltrans.o
 .text          0x00000000800102e0      0xb60 ../ps1sdk/libps1sdk.a(syscalls.o)
                0x00000000800102e0                delay_ms
                0x00000000800102fc                open
                0x0000000080010308                lseek
                0x0000000080010314                read
                0x0000000080010320                write
                0x000000008001032c                close
                0x0000000080010338                ioctl
                0x0000000080010344                exit
                0x0000000080010350                sys_b0_39
                0x000000008001035c                getc
                0x0000000080010368                putc
                0x0000000080010374                todigit
                0x0000000080010380                atof
                0x000000008001038c                strtoul
                0x0000000080010398                strtol
                0x00000000800103a4                abs
                0x00000000800103b0                fabs
                0x00000000800103bc                atoi
                0x00000000800103c8                atol
                0x00000000800103d4                atob
                0x00000000800103e0                setjmp
                0x00000000800103ec                longjmp
                0x00000000800103f8                strcat
                0x0000000080010404                strncat
                0x0000000080010410                strcmp
                0x000000008001041c                strncmp
                0x0000000080010428                strcpy
                0x0000000080010434                strncpy
                0x0000000080010440                strlen
                0x000000008001044c                index
                0x0000000080010458                rindex
                0x0000000080010464                strchr
                0x0000000080010470                strrchr
                0x000000008001047c                strpbrk
                0x0000000080010488                strspn
                0x0000000080010494                strcspn
                0x00000000800104a0                strtok
                0x00000000800104ac                strstr
                0x00000000800104b8                toupper
                0x00000000800104c4                tolower
                0x00000000800104d0                bcopy
                0x00000000800104dc                bzero
                0x00000000800104e8                bcmp
                0x00000000800104f4                memcpy
                0x0000000080010500                memset
                0x000000008001050c                memmove
                0x0000000080010518                memcmp
                0x0000000080010524                memchr
                0x0000000080010530                rand
                0x000000008001053c                srand
                0x0000000080010548                qsort
                0x0000000080010554                strtod
                0x0000000080010560                malloc
                0x000000008001056c                free
                0x0000000080010578                lsearch
                0x0000000080010584                bsearch
                0x0000000080010590                calloc
                0x000000008001059c                realloc
                0x00000000800105a8                InitHeap
                0x00000000800105b4                _exit_A0_58
                0x00000000800105c0                getchar
                0x00000000800105cc                putchar
                0x00000000800105d8                gets
                0x00000000800105e4                puts
                0x00000000800105f0                printf
                0x00000000800105fc                LoadTest
                0x0000000080010608                Load
                0x0000000080010614                Exec
                0x0000000080010620                FlushCache
                0x000000008001062c                InstallInterruptDispatch
                0x0000000080010638                GPU_dw
                0x0000000080010644                GPU_mem2vram
                0x0000000080010650                SetGPUStatus
                0x000000008001065c                GPU_cw
                0x0000000080010668                GPU_cwb
                0x0000000080010674                GPU_SendPackets
                0x0000000080010680                GPU_abort
                0x000000008001068c                GetGPUStatus
                0x0000000080010698                GPU_sync
                0x00000000800106a4                LoadExec
                0x00000000800106b0                GetSysSp
                0x00000000800106bc                _96_init
                0x00000000800106c8                _bu_init
                0x00000000800106d4                _96_remove
                0x00000000800106e0                dev_tty_init
                0x00000000800106ec                dev_tty_open
                0x00000000800106f8                dev_tty_strategy
                0x0000000080010704                dev_tty_ioctl
                0x0000000080010710                dev_cd_open
                0x000000008001071c                dev_cd_read
                0x0000000080010728                dev_cd_close
                0x0000000080010734                dev_cd_firstfile
                0x0000000080010740                dev_cd_nextfile
                0x000000008001074c                dev_cd_chdir
                0x0000000080010758                dev_card_open
                0x0000000080010764                dev_card_read
                0x0000000080010770                dev_card_write
                0x000000008001077c                dev_card_close
                0x0000000080010788                dev_card_firstfile
                0x0000000080010794                dev_card_nextfile
                0x00000000800107a0                dev_card_erase
                0x00000000800107ac                dev_card_undelete
                0x00000000800107b8                dev_card_format
                0x00000000800107c4                dev_card_rename
                0x00000000800107d0                dev_card_call111
                0x00000000800107dc                _96_CdSeekL
                0x00000000800107e8                _96_CdGetStatus
                0x00000000800107f4                _96_CdRead
                0x0000000080010800                _96_SetMode
                0x000000008001080c                _96_CdStop
                0x0000000080010818                _kcallA0_144
                0x0000000080010824                _kcallA0_145
                0x0000000080010830                _kcallA0_146
                0x000000008001083c                _kcallA0_147
                0x0000000080010848                _kcallA0_148
                0x0000000080010854                _kcallA0_149
                0x0000000080010860                AddCDROMDevice
                0x000000008001086c                AddMemCardDevice
                0x0000000080010878                AddDEBUGCONDevice
                0x0000000080010884                AddDummyConsoleDevice
                0x0000000080010890                SetConf
                0x000000008001089c                GetConf
                0x00000000800108a8                _kcallA0_158
                0x00000000800108b4                SetMem
                0x00000000800108c0                _boot
                0x00000000800108cc                SystemError
                0x00000000800108d8                EnqCdIntr
                0x00000000800108e4                DeqCdIntr
                0x00000000800108f0                _96_call_A0_164
                0x00000000800108fc                ReadSector
                0x0000000080010908                IsCdOpen
                0x0000000080010914                bufs_cb_0
                0x0000000080010920                bufs_cb_1
                0x000000008001092c                bufs_cb_2
                0x0000000080010938                bufs_cb_3
                0x0000000080010944                _card_info
                0x0000000080010950                _card_load
                0x000000008001095c                _card_auto
                0x0000000080010968                bufs_cb_4
                0x0000000080010974                _card_call175
                0x0000000080010980                do_longjmp
                0x000000008001098c                GetKernelInfo
                0x0000000080010998                _SysMalloc
                0x00000000800109a4                SysFree
                0x00000000800109b0                SetRCnt
                0x00000000800109bc                GetRCnt
                0x00000000800109c8                StartRCnt
                0x00000000800109d4                StopRCnt
                0x00000000800109e0                ResetRCnt
                0x00000000800109ec                DeliverEvent
                0x00000000800109f8                OpenEvent
                0x0000000080010a04                CloseEvent
                0x0000000080010a10                WaitEvent
                0x0000000080010a1c                TestEvent
                0x0000000080010a28                EnableEvent
                0x0000000080010a34                DisableEvent
                0x0000000080010a40                OpenTh
                0x0000000080010a4c                CloseTh
                0x0000000080010a58                ChangeTh
                0x0000000080010a64                InitPAD
                0x0000000080010a70                StartPAD
                0x0000000080010a7c                StopPAD
                0x0000000080010a88                PAD_init
                0x0000000080010a94                PAD_dr
                0x0000000080010aa0                ReturnFromException
                0x0000000080010aac                ResetEntryInt
                0x0000000080010ab8                HookEntryInt
                0x0000000080010ac4                UnDeliverEvent
                0x0000000080010ad0                _open
                0x0000000080010adc                _lseek
                0x0000000080010ae8                _read
                0x0000000080010af4                _write
                0x0000000080010b00                _close
                0x0000000080010b0c                _ioctl
                0x0000000080010b18                _exit
                0x0000000080010b24                _is_a_tty
                0x0000000080010b30                _getc
                0x0000000080010b3c                _putc
                0x0000000080010b48                _getchar
                0x0000000080010b54                _putchar
                0x0000000080010b60                _gets
                0x0000000080010b6c                _puts
                0x0000000080010b78                _chdir
                0x0000000080010b84                _format
                0x0000000080010b90                firstfile
                0x0000000080010b9c                nextfile
                0x0000000080010ba8                rename
                0x0000000080010bb4                delete
                0x0000000080010bc0                undelete
                0x0000000080010bcc                AddDevice
                0x0000000080010bd8                DelDevice
                0x0000000080010be4                PrintInstalledDevices
                0x0000000080010bf0                InitCARD
                0x0000000080010bfc                StartCARD
                0x0000000080010c08                StopCARD
                0x0000000080010c14                _card_callB0_77
                0x0000000080010c20                _card_write
                0x0000000080010c2c                _card_read
                0x0000000080010c38                _new_card
                0x0000000080010c44                Krom2RawAdd
                0x0000000080010c50                _kcallB0_83
                0x0000000080010c5c                _get_errno
                0x0000000080010c68                _get_error
                0x0000000080010c74                GetC0Table
                0x0000000080010c80                GetB0Table
                0x0000000080010c8c                _card_chan
                0x0000000080010c98                iocall_B0_89
                0x0000000080010ca4                ChangeClearPad
                0x0000000080010cb0                _card_status
                0x0000000080010cbc                _card_wait
                0x0000000080010cc8                InitRCnt
                0x0000000080010cd4                InitException
                0x0000000080010ce0                SysEnqIntRP
                0x0000000080010cec                SysDeqIntRP
                0x0000000080010cf8                get_free_event_slot
                0x0000000080010d04                get_free_TCB_slot
                0x0000000080010d10                ExceptionHandler
                0x0000000080010d1c                InstallExceptionHandlers
                0x0000000080010d28                SysInitMemory
                0x0000000080010d34                SysInitKMem
                0x0000000080010d40                ChangeClearRCnt
                0x0000000080010d4c                InitDefInt
                0x0000000080010d58                SetIrqClearEn
                0x0000000080010d64                InstallDevices
                0x0000000080010d70                FlushStdInOut
                0x0000000080010d7c                GetWord8644
                0x0000000080010d88                _cdevinput
                0x0000000080010d94                _cdevscan
                0x0000000080010da0                _circgetc
                0x0000000080010dac                _circputc
                0x0000000080010db8                ioabort
                0x0000000080010dc4                SetWord8644
                0x0000000080010dd0                KernelRedirect
                0x0000000080010ddc                PatchAOTable
                0x0000000080010de8                Exception
                0x0000000080010df8                EnterCriticalSection
                0x0000000080010e08                ExitCriticalSection
                0x0000000080010e18                GetCOP0_STATUS
                0x0000000080010e28                SetCOP0_STATUS
                0x0000000080010e40                . = ALIGN (0x10)

.fini           0x0000000080010e40        0x0
                0x0000000080010e40                . = ALIGN (0x10)
                0x0000000080010e40                . = ALIGN (0x10)
                0x0000000080010e40                __text_end = .
                0x0000000080010e40                __ftext_end = ABSOLUTE (.)
                0x0000000080010e40                __fdata_start = ABSOLUTE (.)

.rodata         0x0000000080010e40        0xc
 *(.rodata .rodata.* .rdata .rdata.* .gnu.linkonce.r.*)
 .rodata.str1.4
                0x0000000080010e40        0xc /tmp/ccZkEXwY.ltrans0.ltrans.o

.rodata1
 *(.rodata1)
                0x0000000080010e4c                __data_start = .

.data
 *(.a0table)
 *(.data .data.* .gnu.linkonce.d.*)
 *(.data1)
 *(.got.plt)
 *(.got)
                0x0000000080010e4c                . = ALIGN (0x4)
                0x0000000080010e4c                __data_end = .
                0x0000000080010e4c                __fdata_end = .
                0x0000000080010e4c                __bss_start = .

.sbss
 *(.dynsbss)
 *(.sbss .sbss.* .gnu.linkonce.sb.*)
 *(.scommon)
 *(.dynbss)
 *(.bss .bss.* .gnu.linkonce.b.*)
 *(COMMON)
                0x0000000080010e4c                . = ALIGN (0x4)
                0x0000000080010e4c                __bss_end = .
                0x0000000080010e4c                __end = .
                0x000000008000f800                . = (ADDR (.text) - 0x800)

/DISCARD/
 *(.MIPS.abiflags)
 *(.rel.iplt)
 *(.rela.iplt)
 *(.rel.plt)
 *(.rela.plt)
 *(.plt)
 *(.iplt)
 *(.debug)
 *(.debug_srcinfo)
 *(.debug_sfnames)
 *(.debug_aranges)
 *(.debug_pubnames)
 *(.debug_info .gnu.linkonce.wi.*)
 *(.debug_abbrev)
 *(.debug_line .debug_line.* .debug_line_end)
 *(.debug_frame)
 *(.debug_str)
 *(.debug_loc)
 *(.debug_macinfo)
 *(.debug_weaknames)
 *(.debug_funcnames)
 *(.debug_typenames)
 *(.debug_varnames)
 *(.debug_pubtypes)
 *(.debug_ranges)
 *(.debug_macro)
 *(.mdebug.abi32)
 *(.mdebug.abiN32)
 *(.mdebug.abi64)
 *(.mdebug.abiO64)
 *(.mdebug.eabi32)
 *(.mdebug.eabi64)
 *(.note.GNU-stack)
 *(.gnu_debuglink)
 *(.gnu.lto_*)
 *(.note.gnu.build-id)
OUTPUT(pshittyload.elf elf32-tradlittlemips)

.pdr            0x0000000000000000        0x0
 .pdr           0x0000000000000000        0x0 crt0/crt0.o

.gnu.attributes
                0x0000000000000000       0x10
 .gnu.attributes
                0x0000000000000000       0x10 crt0/crt0.o
 .gnu.attributes
                0x0000000000000010       0x10 /tmp/ccZkEXwY.ltrans0.ltrans.o
 .gnu.attributes
                0x0000000000000020       0x10 ../ps1sdk/libps1sdk.a(syscalls.o)

.comment        0x0000000000000000       0x2b
 .comment       0x0000000000000000       0x2b /tmp/ccZkEXwY.ltrans0.ltrans.o
                                         0x2c (size before relaxing)
